Certificate:
    Data:
        Version: 3 (0x2)
        Serial Number: 9 (0x9)
        Signature Algorithm: sha256WithRSAEncryption
        Issuer: O=Freifunk M\xC3\x83\xC2\xBCnchen, CN=Freifunk M\xC3\x83\xC2\xBCnchen etcd CA Root
        Validity
            Not Before: Jan  1 00:00:00 1970 GMT
            Not After : Dec 31 23:59:59 9999 GMT
        Subject: O=Freifunk M\xC3\x83\xC2\xBCnchen, CN=Freifunk M\xC3\x83\xC2\xBCnchen parker-gw04 (client)
        Subject Public Key Info:
            Public Key Algorithm: rsaEncryption
                Public-Key: (2048 bit)
                Modulus:
                    00:cb:e6:53:8b:39:13:03:72:c4:52:31:0b:46:73:
                    7c:65:d3:6b:91:65:4b:c2:18:e1:ed:fd:d5:15:f9:
                    67:22:46:f1:b0:32:03:b2:d1:04:c6:05:38:95:25:
                    24:8b:99:ce:9c:65:49:20:d9:f4:51:dd:fd:33:b5:
                    5e:10:5d:4c:c2:05:66:d8:04:4b:d6:b5:02:6a:d3:
                    02:f3:7d:8c:b3:be:bd:c2:3d:79:b5:f8:7e:d8:4d:
                    ce:16:84:46:4b:d7:6e:7c:f7:80:25:c4:88:4f:e6:
                    04:2b:95:b7:a5:e1:d5:88:55:48:37:04:9f:a6:ec:
                    8d:94:9b:c7:ca:5c:43:10:73:ed:1b:93:24:16:9b:
                    fa:60:67:ea:a8:62:13:dc:6c:dd:32:43:f6:a4:0b:
                    61:3f:dc:41:8d:6c:85:01:31:2c:f4:3b:6d:8a:33:
                    49:79:8b:06:b3:12:28:65:a3:a1:d9:af:5b:b3:b0:
                    fa:38:99:d9:98:45:8c:91:6b:17:b0:87:b6:1c:c7:
                    55:ad:58:d1:83:00:cc:99:92:18:33:15:c5:5e:3c:
                    e6:22:ee:d2:54:c5:85:26:e9:93:07:78:d1:41:65:
                    8c:53:c9:fb:f3:1f:bd:40:35:57:19:63:03:f7:99:
                    f4:86:1e:25:6c:d7:b2:7f:34:73:9f:42:0c:33:4e:
                    d5:4f
                Exponent: 65537 (0x10001)
        X509v3 extensions:
            X509v3 Subject Key Identifier: 
                29:8F:BD:16:C8:D7:75:E8:F7:CF:4F:EB:EC:C2:92:CD:B4:CC:75:53
            X509v3 Authority Key Identifier: 
                keyid:A8:9B:D8:83:C4:FE:01:EA:69:B2:EB:FD:EF:BE:E3:EE:62:DB:D0:50
                DirName:/O=Freifunk M\xC3\x83\xC2\xBCnchen/CN=Freifunk M\xC3\x83\xC2\xBCnchen etcd CA Root
                serial:01
            X509v3 Basic Constraints: 
                CA:FALSE
            X509v3 Extended Key Usage: 
                TLS Web Client Authentication
    Signature Algorithm: sha256WithRSAEncryption
    Signature Value:
        7f:ac:ca:17:78:b9:94:10:d9:79:c0:87:35:d3:dc:fb:60:2e:
        a6:a5:ba:76:de:cb:22:d5:2c:40:a0:36:11:46:9b:9c:ee:7d:
        ce:4e:1d:73:58:75:84:5e:76:a6:c4:9e:49:e4:dc:69:b8:b1:
        6f:ea:aa:f1:f7:40:f1:65:41:4a:ab:88:dd:0f:05:1a:20:a0:
        c8:26:05:90:f2:92:56:0e:4a:c9:ae:7e:fa:03:13:d8:6a:08:
        14:3d:cc:c1:b0:bb:99:f3:f3:a4:0f:3b:6c:33:07:4e:99:99:
        5d:59:66:21:55:54:30:bb:de:fd:d7:f9:99:17:f5:98:8f:cd:
        da:f7:73:50:8e:9a:41:66:ec:c5:1b:cc:52:6d:98:bf:fc:26:
        77:7c:8f:fe:71:b6:f4:17:73:8a:0d:3f:2a:8f:58:5a:59:4f:
        d0:ee:fd:24:64:92:1f:9f:7e:b3:c3:8d:ae:17:09:4f:90:75:
        98:3e:90:aa:38:0f:48:b9:ed:eb:bf:4d:85:5b:cd:2d:3f:27:
        54:ab:46:05:28:5e:c5:0b:03:b2:87:4b:e6:1e:fa:2f:fe:a0:
        08:95:16:9d:90:28:5a:aa:11:75:66:bc:87:a9:50:79:c5:56:
        f6:ef:0b:fe:4d:58:c2:d0:41:ee:84:53:6b:f6:62:72:b9:08:
        0c:1d:02:39
-----BEGIN CERTIFICATE-----
MIIDzTCCArWgAwIBAgIBCTANBgkqhkiG9w0BAQsFADBJMRwwGgYDVQQKDBNGcmVp
ZnVuayBNw4PCvG5jaGVuMSkwJwYDVQQDDCBGcmVpZnVuayBNw4PCvG5jaGVuIGV0
Y2QgQ0EgUm9vdDAgFw03MDAxMDEwMDAwMDBaGA85OTk5MTIzMTIzNTk1OVowUTEc
MBoGA1UECgwTRnJlaWZ1bmsgTcODwrxuY2hlbjExMC8GA1UEAwwoRnJlaWZ1bmsg
TcODwrxuY2hlbiBwYXJrZXItZ3cwNCAoY2xpZW50KTCCASIwDQYJKoZIhvcNAQEB
BQADggEPADCCAQoCggEBAMvmU4s5EwNyxFIxC0ZzfGXTa5FlS8IY4e391RX5ZyJG
8bAyA7LRBMYFOJUlJIuZzpxlSSDZ9FHd/TO1XhBdTMIFZtgES9a1AmrTAvN9jLO+
vcI9ebX4fthNzhaERkvXbnz3gCXEiE/mBCuVt6Xh1YhVSDcEn6bsjZSbx8pcQxBz
7RuTJBab+mBn6qhiE9xs3TJD9qQLYT/cQY1shQExLPQ7bYozSXmLBrMSKGWjodmv
W7Ow+jiZ2ZhFjJFrF7CHthzHVa1Y0YMAzJmSGDMVxV485iLu0lTFhSbpkwd40UFl
jFPJ+/MfvUA1VxljA/eZ9IYeJWzXsn80c59CDDNO1U8CAwEAAaOBtTCBsjAdBgNV
HQ4EFgQUKY+9FsjXdej3z0/r7MKSzbTMdVMwcQYDVR0jBGowaIAUqJvYg8T+Aepp
suv9777j7mLb0FChTaRLMEkxHDAaBgNVBAoME0ZyZWlmdW5rIE3Dg8K8bmNoZW4x
KTAnBgNVBAMMIEZyZWlmdW5rIE3Dg8K8bmNoZW4gZXRjZCBDQSBSb290ggEBMAkG
A1UdEwQCMAAwEwYDVR0lBAwwCgYIKwYBBQUHAwIwDQYJKoZIhvcNAQELBQADggEB
AH+syhd4uZQQ2XnAhzXT3PtgLqalunbeyyLVLECgNhFGm5zufc5OHXNYdYRedqbE
nknk3Gm4sW/qqvH3QPFlQUqriN0PBRogoMgmBZDyklYOSsmufvoDE9hqCBQ9zMGw
u5nz86QPO2wzB06ZmV1ZZiFVVDC73v3X+ZkX9ZiPzdr3c1COmkFm7MUbzFJtmL/8
Jnd8j/5xtvQXc4oNPyqPWFpZT9Du/SRkkh+ffrPDja4XCU+QdZg+kKo4D0i57eu/
TYVbzS0/J1SrRgUoXsULA7KHS+Ye+i/+oAiVFp2QKFqqEXVmvIepUHnFVvbvC/5N
WMLQQe6EU2v2YnK5CAwdAjk=
-----END CERTIFICATE-----
