Certificate:
    Data:
        Version: 3 (0x2)
        Serial Number: 5 (0x5)
        Signature Algorithm: sha256WithRSAEncryption
        Issuer: O=Freifunk M\xC3\x83\xC2\xBCnchen, CN=Freifunk M\xC3\x83\xC2\xBCnchen etcd CA Root
        Validity
            Not Before: Jan  1 00:00:00 1970 GMT
            Not After : Dec 31 23:59:59 9999 GMT
        Subject: O=Freifunk M\xC3\x83\xC2\xBCnchen, CN=Freifunk M\xC3\x83\xC2\xBCnchen parker-gw04 (server)
        Subject Public Key Info:
            Public Key Algorithm: rsaEncryption
                Public-Key: (2048 bit)
                Modulus:
                    00:9e:19:31:ea:0b:c1:bc:59:aa:8c:1a:6f:70:10:
                    8a:25:a7:50:36:15:da:1a:f6:aa:97:9c:61:1c:e5:
                    03:ff:50:b4:0d:32:d8:e8:5c:ef:35:7a:d0:5a:41:
                    86:40:e4:c3:ec:97:ed:fd:2d:7d:cc:9c:71:1a:84:
                    ee:0f:0c:89:09:1b:07:b0:f5:9f:77:9e:4b:85:72:
                    3e:17:a7:8e:2b:c2:22:99:11:01:c8:1a:c1:db:d7:
                    2f:b3:f5:00:7c:63:c8:72:9d:92:f9:51:11:08:59:
                    d2:45:f0:75:5f:9d:31:65:dd:41:59:6b:93:a2:ec:
                    d1:51:81:70:ed:3a:35:18:05:3a:99:a4:15:43:1a:
                    08:78:16:94:10:d2:30:41:45:0f:e4:dc:b6:5e:d6:
                    e3:ae:90:3f:91:56:76:84:01:20:4d:37:0d:d4:e4:
                    01:92:65:50:e3:52:10:bf:21:96:1b:98:7c:48:58:
                    c9:90:cb:ed:90:14:00:f7:7a:18:5c:7f:e8:f6:ba:
                    2b:84:a5:e2:31:e3:d0:c0:e2:28:93:fb:8a:6c:ba:
                    9c:c0:2e:13:a5:5a:27:3a:0d:56:95:f6:fd:40:8a:
                    a5:81:04:fe:32:21:5d:85:61:1e:4f:c4:8f:3d:04:
                    48:1a:66:d4:68:6c:6e:22:39:bb:ec:f2:7d:09:3a:
                    8c:69
                Exponent: 65537 (0x10001)
        X509v3 extensions:
            X509v3 Subject Key Identifier: 
                B5:61:E0:19:1F:6C:77:92:A9:69:E5:06:62:FF:BE:3D:F6:A8:0F:AE
            X509v3 Authority Key Identifier: 
                keyid:A8:9B:D8:83:C4:FE:01:EA:69:B2:EB:FD:EF:BE:E3:EE:62:DB:D0:50
                DirName:/O=Freifunk M\xC3\x83\xC2\xBCnchen/CN=Freifunk M\xC3\x83\xC2\xBCnchen etcd CA Root
                serial:01
            X509v3 Basic Constraints: 
                CA:FALSE
            X509v3 Extended Key Usage: 
                TLS Web Server Authentication, TLS Web Client Authentication
            X509v3 Subject Alternative Name: 
                IP Address:172.16.0.4
    Signature Algorithm: sha256WithRSAEncryption
    Signature Value:
        97:43:a2:18:88:27:d3:0b:ba:f0:3d:15:3c:e0:bd:09:5a:63:
        67:1f:88:d1:65:7e:fa:2b:a9:4e:fa:ce:2b:64:b9:84:72:7f:
        8d:ad:da:ee:9a:44:53:ab:05:75:5a:14:f9:27:a3:96:aa:3c:
        2d:c0:0d:a3:45:db:99:22:6b:a6:71:54:24:93:f6:7a:67:ad:
        dc:e7:60:a1:69:2c:14:4a:3d:cd:4c:7e:0f:fb:7b:b2:dd:66:
        41:cf:0e:3a:ca:01:8e:dc:bb:65:c7:57:5a:78:33:84:72:84:
        c9:bf:11:86:04:b4:b3:e7:c5:32:37:b3:f0:a7:52:d4:e8:84:
        e5:9e:4c:cd:28:a3:ac:09:f6:88:db:4c:d4:18:9e:43:b7:d1:
        f0:ac:fe:1b:d6:48:58:45:b9:dc:f1:ce:a5:eb:d4:9d:d4:28:
        51:49:56:3e:9a:f6:5a:f7:49:c1:47:03:a4:43:d6:d1:70:a8:
        d4:65:29:f9:f9:83:0d:d9:5b:31:6a:f4:3b:a1:3f:85:3a:c8:
        99:21:8e:ef:e3:1f:bf:94:20:84:f8:fd:1d:65:30:37:25:06:
        21:1e:a7:f6:a8:13:4f:a5:31:9a:c7:0d:53:4c:85:47:54:64:
        fa:21:86:e1:3d:be:5d:80:0e:6d:b3:04:2c:82:95:1b:1d:f9:
        ed:db:06:02
-----BEGIN CERTIFICATE-----
MIID6DCCAtCgAwIBAgIBBTANBgkqhkiG9w0BAQsFADBJMRwwGgYDVQQKDBNGcmVp
ZnVuayBNw4PCvG5jaGVuMSkwJwYDVQQDDCBGcmVpZnVuayBNw4PCvG5jaGVuIGV0
Y2QgQ0EgUm9vdDAgFw03MDAxMDEwMDAwMDBaGA85OTk5MTIzMTIzNTk1OVowUTEc
MBoGA1UECgwTRnJlaWZ1bmsgTcODwrxuY2hlbjExMC8GA1UEAwwoRnJlaWZ1bmsg
TcODwrxuY2hlbiBwYXJrZXItZ3cwNCAoc2VydmVyKTCCASIwDQYJKoZIhvcNAQEB
BQADggEPADCCAQoCggEBAJ4ZMeoLwbxZqowab3AQiiWnUDYV2hr2qpecYRzlA/9Q
tA0y2Ohc7zV60FpBhkDkw+yX7f0tfcyccRqE7g8MiQkbB7D1n3eeS4VyPhenjivC
IpkRAcgawdvXL7P1AHxjyHKdkvlREQhZ0kXwdV+dMWXdQVlrk6Ls0VGBcO06NRgF
OpmkFUMaCHgWlBDSMEFFD+Tctl7W466QP5FWdoQBIE03DdTkAZJlUONSEL8hlhuY
fEhYyZDL7ZAUAPd6GFx/6Pa6K4Sl4jHj0MDiKJP7imy6nMAuE6VaJzoNVpX2/UCK
pYEE/jIhXYVhHk/Ejz0ESBpm1GhsbiI5u+zyfQk6jGkCAwEAAaOB0DCBzTAdBgNV
HQ4EFgQUtWHgGR9sd5KpaeUGYv++PfaoD64wcQYDVR0jBGowaIAUqJvYg8T+Aepp
suv9777j7mLb0FChTaRLMEkxHDAaBgNVBAoME0ZyZWlmdW5rIE3Dg8K8bmNoZW4x
KTAnBgNVBAMMIEZyZWlmdW5rIE3Dg8K8bmNoZW4gZXRjZCBDQSBSb290ggEBMAkG
A1UdEwQCMAAwHQYDVR0lBBYwFAYIKwYBBQUHAwEGCCsGAQUFBwMCMA8GA1UdEQQI
MAaHBKwQAAQwDQYJKoZIhvcNAQELBQADggEBAJdDohiIJ9MLuvA9FTzgvQlaY2cf
iNFlfvorqU76zitkuYRyf42t2u6aRFOrBXVaFPkno5aqPC3ADaNF25kia6ZxVCST
9npnrdznYKFpLBRKPc1Mfg/7e7LdZkHPDjrKAY7cu2XHV1p4M4RyhMm/EYYEtLPn
xTI3s/CnUtTohOWeTM0oo6wJ9ojbTNQYnkO30fCs/hvWSFhFudzxzqXr1J3UKFFJ
Vj6a9lr3ScFHA6RD1tFwqNRlKfn5gw3ZWzFq9DuhP4U6yJkhju/jH7+UIIT4/R1l
MDclBiEep/aoE0+lMZrHDVNMhUdUZPohhuE9vl2ADm2zBCyClRsd+e3bBgI=
-----END CERTIFICATE-----
