Certificate:
    Data:
        Version: 3 (0x2)
        Serial Number: 6 (0x6)
        Signature Algorithm: sha256WithRSAEncryption
        Issuer: O=Freifunk M\xC3\x83\xC2\xBCnchen, CN=Freifunk M\xC3\x83\xC2\xBCnchen etcd CA Root
        Validity
            Not Before: Jan  1 00:00:00 1970 GMT
            Not After : Dec 31 23:59:59 9999 GMT
        Subject: O=Freifunk M\xC3\x83\xC2\xBCnchen, CN=Freifunk M\xC3\x83\xC2\xBCnchen parker-gw01 (client)
        Subject Public Key Info:
            Public Key Algorithm: rsaEncryption
                Public-Key: (2048 bit)
                Modulus:
                    00:8a:b3:cc:21:45:48:b6:6d:40:9a:b6:d7:30:07:
                    83:0e:75:70:0f:f8:e7:a1:9d:0e:be:cb:ee:56:60:
                    31:55:5a:9b:db:55:1a:62:1b:ef:c3:11:f6:f9:36:
                    a3:c7:62:b2:24:6c:58:c2:e2:49:8e:46:b0:23:c9:
                    0b:37:73:64:5c:28:15:b8:d7:6a:e2:07:68:fe:a6:
                    f4:78:b4:db:b1:0d:ca:dc:da:a5:7c:ef:cd:16:59:
                    82:66:2b:8d:11:c1:68:d5:da:5f:59:7b:cd:43:e2:
                    67:6c:14:5e:c9:f1:9b:e6:5b:f4:81:4a:0c:59:44:
                    2b:4b:b6:e1:73:15:bd:d6:c9:9a:48:2f:49:e9:22:
                    aa:93:d9:0f:0c:1a:23:79:df:f9:08:c8:96:32:fc:
                    01:bd:fc:56:e9:19:32:8a:4e:1f:48:83:b8:b1:0f:
                    27:7a:e7:c5:86:e8:a0:10:18:f0:da:bf:5c:02:aa:
                    43:e0:d9:e6:3e:81:e8:11:81:31:27:30:27:13:20:
                    bf:26:3a:8e:d1:eb:4d:c2:2d:da:bd:99:9e:0b:d1:
                    93:cb:d4:ac:75:cb:f2:73:ab:5a:38:8d:84:78:5b:
                    89:0d:a3:17:f5:7a:84:b7:8f:c7:cb:1a:a7:12:e8:
                    7b:5a:3c:0d:21:7f:cb:8e:ae:98:88:fd:4c:8f:64:
                    72:df
                Exponent: 65537 (0x10001)
        X509v3 extensions:
            X509v3 Subject Key Identifier: 
                3D:C1:35:C9:52:11:C1:5E:19:A1:63:7B:05:DA:C1:1F:1A:6B:F9:F3
            X509v3 Authority Key Identifier: 
                keyid:A8:9B:D8:83:C4:FE:01:EA:69:B2:EB:FD:EF:BE:E3:EE:62:DB:D0:50
                DirName:/O=Freifunk M\xC3\x83\xC2\xBCnchen/CN=Freifunk M\xC3\x83\xC2\xBCnchen etcd CA Root
                serial:01
            X509v3 Basic Constraints: 
                CA:FALSE
            X509v3 Extended Key Usage: 
                TLS Web Client Authentication
    Signature Algorithm: sha256WithRSAEncryption
    Signature Value:
        da:51:be:86:5e:9a:cf:2f:4c:c2:91:c0:47:09:85:65:58:7e:
        c3:bd:0c:5c:b6:32:9d:05:5c:3b:fb:c1:de:ae:b0:2f:e0:70:
        a2:ed:fd:fc:b6:9c:57:d6:d9:10:ce:ea:68:a4:6c:13:41:88:
        08:6a:6e:d3:0d:3d:1a:1f:1f:45:46:19:6b:57:60:62:8c:54:
        bc:f3:7b:7a:f6:dd:d0:65:19:ba:1e:da:ef:bf:46:36:70:ad:
        0e:c7:d9:0c:9e:2f:6a:ec:60:76:5b:12:5f:70:4b:44:3c:30:
        ce:09:27:d7:f2:68:0c:ab:83:c7:b6:39:1e:99:43:d2:cd:a5:
        47:14:a8:c5:43:86:21:fb:b3:d9:35:b4:a1:71:2b:af:d1:27:
        60:35:a8:65:52:0f:18:37:d9:53:ac:8b:cf:f1:ef:7f:7d:e2:
        06:a2:e2:20:91:36:88:87:a5:a8:66:4d:03:36:0d:00:27:52:
        75:82:3e:ec:66:fa:ac:23:64:41:e2:bd:6e:f7:db:54:99:98:
        53:12:73:aa:0e:cc:c5:9e:71:0c:19:fb:a1:92:e7:d1:2f:75:
        ad:9d:44:b5:46:73:ae:e5:33:75:ba:01:be:ad:0b:b7:15:97:
        a2:57:4e:38:41:9f:32:95:f1:7b:bf:ce:eb:35:41:18:6b:be:
        70:9a:70:f3
-----BEGIN CERTIFICATE-----
MIIDzTCCArWgAwIBAgIBBjANBgkqhkiG9w0BAQsFADBJMRwwGgYDVQQKDBNGcmVp
ZnVuayBNw4PCvG5jaGVuMSkwJwYDVQQDDCBGcmVpZnVuayBNw4PCvG5jaGVuIGV0
Y2QgQ0EgUm9vdDAgFw03MDAxMDEwMDAwMDBaGA85OTk5MTIzMTIzNTk1OVowUTEc
MBoGA1UECgwTRnJlaWZ1bmsgTcODwrxuY2hlbjExMC8GA1UEAwwoRnJlaWZ1bmsg
TcODwrxuY2hlbiBwYXJrZXItZ3cwMSAoY2xpZW50KTCCASIwDQYJKoZIhvcNAQEB
BQADggEPADCCAQoCggEBAIqzzCFFSLZtQJq21zAHgw51cA/456GdDr7L7lZgMVVa
m9tVGmIb78MR9vk2o8disiRsWMLiSY5GsCPJCzdzZFwoFbjXauIHaP6m9Hi027EN
ytzapXzvzRZZgmYrjRHBaNXaX1l7zUPiZ2wUXsnxm+Zb9IFKDFlEK0u24XMVvdbJ
mkgvSekiqpPZDwwaI3nf+QjIljL8Ab38VukZMopOH0iDuLEPJ3rnxYbooBAY8Nq/
XAKqQ+DZ5j6B6BGBMScwJxMgvyY6jtHrTcIt2r2ZngvRk8vUrHXL8nOrWjiNhHhb
iQ2jF/V6hLePx8sapxLoe1o8DSF/y46umIj9TI9kct8CAwEAAaOBtTCBsjAdBgNV
HQ4EFgQUPcE1yVIRwV4ZoWN7BdrBHxpr+fMwcQYDVR0jBGowaIAUqJvYg8T+Aepp
suv9777j7mLb0FChTaRLMEkxHDAaBgNVBAoME0ZyZWlmdW5rIE3Dg8K8bmNoZW4x
KTAnBgNVBAMMIEZyZWlmdW5rIE3Dg8K8bmNoZW4gZXRjZCBDQSBSb290ggEBMAkG
A1UdEwQCMAAwEwYDVR0lBAwwCgYIKwYBBQUHAwIwDQYJKoZIhvcNAQELBQADggEB
ANpRvoZems8vTMKRwEcJhWVYfsO9DFy2Mp0FXDv7wd6usC/gcKLt/fy2nFfW2RDO
6mikbBNBiAhqbtMNPRofH0VGGWtXYGKMVLzze3r23dBlGboe2u+/RjZwrQ7H2Qye
L2rsYHZbEl9wS0Q8MM4JJ9fyaAyrg8e2OR6ZQ9LNpUcUqMVDhiH7s9k1tKFxK6/R
J2A1qGVSDxg32VOsi8/x73994gai4iCRNoiHpahmTQM2DQAnUnWCPuxm+qwjZEHi
vW7321SZmFMSc6oOzMWecQwZ+6GS59Evda2dRLVGc67lM3W6Ab6tC7cVl6JXTjhB
nzKV8Xu/zus1QRhrvnCacPM=
-----END CERTIFICATE-----
