Certificate:
    Data:
        Version: 3 (0x2)
        Serial Number: 2 (0x2)
        Signature Algorithm: sha256WithRSAEncryption
        Issuer: O=Freifunk M\xC3\x83\xC2\xBCnchen, CN=Freifunk M\xC3\x83\xC2\xBCnchen etcd CA Root
        Validity
            Not Before: Jan  1 00:00:00 1970 GMT
            Not After : Dec 31 23:59:59 9999 GMT
        Subject: O=Freifunk M\xC3\x83\xC2\xBCnchen, CN=Freifunk M\xC3\x83\xC2\xBCnchen parker-gw01 (server)
        Subject Public Key Info:
            Public Key Algorithm: rsaEncryption
                Public-Key: (2048 bit)
                Modulus:
                    00:bd:31:e8:41:7a:90:38:9b:6d:e5:08:33:41:b6:
                    e1:d6:6e:f2:6c:62:0f:5b:d0:0c:7c:e4:03:48:84:
                    4f:d3:8c:7e:a5:d7:49:4b:e3:91:85:3b:f2:f8:74:
                    d6:0c:e5:2d:3b:4c:c7:68:d5:e4:a1:f9:0a:99:16:
                    2c:e8:91:07:b7:8f:1f:c0:93:55:1d:bf:05:a5:82:
                    5b:98:b6:a0:04:96:84:5d:45:b5:be:da:f4:bd:10:
                    9f:72:ce:f9:ec:43:b3:f4:f6:02:d1:1e:d1:b2:84:
                    db:c6:d2:40:ba:2b:37:76:06:a8:13:0d:f9:c3:c0:
                    71:d1:5d:27:41:8b:e9:65:79:ad:a5:15:f2:5a:b6:
                    50:4e:6b:0d:f5:8e:2e:ea:a9:5e:b2:61:bb:f0:50:
                    58:52:4b:df:8d:3d:ee:5c:49:f7:13:31:d9:28:d4:
                    1f:03:8a:a3:4a:63:18:ae:34:d6:ff:1b:3d:e1:9c:
                    8c:af:90:6b:95:f7:f0:70:4f:67:b7:bf:fb:d0:e3:
                    ea:f5:b2:eb:b9:fc:e5:9c:4d:7f:03:97:c1:d8:6c:
                    49:52:22:4b:ec:40:1f:44:d5:af:04:ed:e3:84:45:
                    ab:5b:8f:13:d9:a0:a8:c2:84:3c:c5:41:0d:61:d4:
                    ec:44:79:e0:03:2d:67:b1:83:7b:16:d9:d4:df:4a:
                    92:ad
                Exponent: 65537 (0x10001)
        X509v3 extensions:
            X509v3 Subject Key Identifier: 
                D5:19:6D:40:3E:07:68:E2:12:5E:2B:50:0B:B1:9B:C2:17:F7:1B:87
            X509v3 Authority Key Identifier: 
                keyid:A8:9B:D8:83:C4:FE:01:EA:69:B2:EB:FD:EF:BE:E3:EE:62:DB:D0:50
                DirName:/O=Freifunk M\xC3\x83\xC2\xBCnchen/CN=Freifunk M\xC3\x83\xC2\xBCnchen etcd CA Root
                serial:01
            X509v3 Basic Constraints: 
                CA:FALSE
            X509v3 Extended Key Usage: 
                TLS Web Server Authentication, TLS Web Client Authentication
            X509v3 Subject Alternative Name: 
                IP Address:172.16.0.1
    Signature Algorithm: sha256WithRSAEncryption
    Signature Value:
        96:91:44:c3:25:84:71:2b:2c:79:4b:ef:61:70:9c:6b:42:78:
        99:d5:4e:c1:01:49:0b:f9:54:94:3b:1e:45:41:ba:2f:a5:a6:
        ab:86:c5:45:46:83:b7:1a:ff:e0:24:5e:96:74:4e:fb:50:95:
        fa:84:47:2d:36:34:28:92:d6:75:dc:2f:fd:b3:77:85:65:9f:
        1f:a9:ba:ad:5d:b7:86:a6:1f:69:eb:25:11:67:21:2d:40:67:
        b9:81:de:bb:bf:4c:8b:34:44:08:38:30:95:f6:14:9c:3b:07:
        5f:d3:96:08:b2:65:a3:d2:c6:34:ee:2f:7c:0d:c2:7d:46:a2:
        55:57:c5:a0:15:b7:a1:7c:8f:9e:0c:a9:27:91:32:46:ec:39:
        13:d1:cf:6d:5e:75:68:b2:28:f0:66:0b:68:73:ba:0f:63:ab:
        e6:c2:0f:19:41:c7:2b:13:10:74:a2:d1:39:d8:bd:73:6d:62:
        57:1d:6a:03:1d:ca:96:9f:3d:c5:4d:a6:66:50:61:52:92:fa:
        fe:56:a8:87:cb:ca:44:fb:af:2f:53:a2:06:f0:8c:39:f3:c9:
        13:0a:6b:16:7e:ff:61:e4:5a:a9:74:c3:3e:26:14:f5:1e:bf:
        44:a9:1c:a3:46:53:c9:c6:fa:3d:76:9e:cd:1f:1c:3a:75:c5:
        38:de:52:85
-----BEGIN CERTIFICATE-----
MIID6DCCAtCgAwIBAgIBAjANBgkqhkiG9w0BAQsFADBJMRwwGgYDVQQKDBNGcmVp
ZnVuayBNw4PCvG5jaGVuMSkwJwYDVQQDDCBGcmVpZnVuayBNw4PCvG5jaGVuIGV0
Y2QgQ0EgUm9vdDAgFw03MDAxMDEwMDAwMDBaGA85OTk5MTIzMTIzNTk1OVowUTEc
MBoGA1UECgwTRnJlaWZ1bmsgTcODwrxuY2hlbjExMC8GA1UEAwwoRnJlaWZ1bmsg
TcODwrxuY2hlbiBwYXJrZXItZ3cwMSAoc2VydmVyKTCCASIwDQYJKoZIhvcNAQEB
BQADggEPADCCAQoCggEBAL0x6EF6kDibbeUIM0G24dZu8mxiD1vQDHzkA0iET9OM
fqXXSUvjkYU78vh01gzlLTtMx2jV5KH5CpkWLOiRB7ePH8CTVR2/BaWCW5i2oASW
hF1Ftb7a9L0Qn3LO+exDs/T2AtEe0bKE28bSQLorN3YGqBMN+cPAcdFdJ0GL6WV5
raUV8lq2UE5rDfWOLuqpXrJhu/BQWFJL34097lxJ9xMx2SjUHwOKo0pjGK401v8b
PeGcjK+Qa5X38HBPZ7e/+9Dj6vWy67n85ZxNfwOXwdhsSVIiS+xAH0TVrwTt44RF
q1uPE9mgqMKEPMVBDWHU7ER54AMtZ7GDexbZ1N9Kkq0CAwEAAaOB0DCBzTAdBgNV
HQ4EFgQU1RltQD4HaOISXitQC7Gbwhf3G4cwcQYDVR0jBGowaIAUqJvYg8T+Aepp
suv9777j7mLb0FChTaRLMEkxHDAaBgNVBAoME0ZyZWlmdW5rIE3Dg8K8bmNoZW4x
KTAnBgNVBAMMIEZyZWlmdW5rIE3Dg8K8bmNoZW4gZXRjZCBDQSBSb290ggEBMAkG
A1UdEwQCMAAwHQYDVR0lBBYwFAYIKwYBBQUHAwEGCCsGAQUFBwMCMA8GA1UdEQQI
MAaHBKwQAAEwDQYJKoZIhvcNAQELBQADggEBAJaRRMMlhHErLHlL72FwnGtCeJnV
TsEBSQv5VJQ7HkVBui+lpquGxUVGg7ca/+AkXpZ0TvtQlfqERy02NCiS1nXcL/2z
d4Vlnx+puq1dt4amH2nrJRFnIS1AZ7mB3ru/TIs0RAg4MJX2FJw7B1/TlgiyZaPS
xjTuL3wNwn1GolVXxaAVt6F8j54MqSeRMkbsORPRz21edWiyKPBmC2hzug9jq+bC
DxlBxysTEHSi0TnYvXNtYlcdagMdypafPcVNpmZQYVKS+v5WqIfLykT7ry9Togbw
jDnzyRMKaxZ+/2HkWql0wz4mFPUev0SpHKNGU8nG+j12ns0fHDp1xTjeUoU=
-----END CERTIFICATE-----
