Certificate:
    Data:
        Version: 3 (0x2)
        Serial Number: 8 (0x8)
        Signature Algorithm: sha256WithRSAEncryption
        Issuer: O=Freifunk M\xC3\x83\xC2\xBCnchen, CN=Freifunk M\xC3\x83\xC2\xBCnchen etcd CA Root
        Validity
            Not Before: Jan  1 00:00:00 1970 GMT
            Not After : Dec 31 23:59:59 9999 GMT
        Subject: O=Freifunk M\xC3\x83\xC2\xBCnchen, CN=Freifunk M\xC3\x83\xC2\xBCnchen parker-gw03 (client)
        Subject Public Key Info:
            Public Key Algorithm: rsaEncryption
                Public-Key: (2048 bit)
                Modulus:
                    00:ad:8e:b4:a1:41:fd:e3:76:73:0f:59:b4:58:ba:
                    48:b5:ad:60:fb:94:76:6f:74:e3:c4:ea:ff:d5:5a:
                    3d:c2:9d:89:4c:63:64:31:f5:d3:ec:76:1e:c3:01:
                    c4:62:b7:6b:0b:ca:b2:0f:c4:d8:27:0e:18:7c:1f:
                    48:b1:a4:4c:2e:4d:3f:66:a8:ca:b7:0a:9b:37:07:
                    29:98:49:70:3f:48:6a:7c:69:ed:d2:45:38:7d:b3:
                    8e:da:ac:b4:ac:69:53:d6:5e:81:78:42:95:58:c9:
                    33:86:b0:e2:c2:bb:bf:12:98:b3:3f:83:37:41:c4:
                    8e:73:8f:fb:9f:88:54:cd:8b:81:cf:6e:19:3a:9f:
                    10:06:c8:0d:79:c8:46:ed:f6:61:6d:71:da:2d:cf:
                    45:f7:1f:4a:d0:75:5a:a1:2a:12:68:a6:09:fa:fb:
                    ca:7d:c8:57:06:88:4d:e7:52:17:aa:fa:72:02:43:
                    7f:0a:50:f4:7c:63:5e:ec:35:b7:43:71:9c:c2:71:
                    2b:b8:2d:98:a0:8c:3b:39:4d:65:a5:af:d2:6f:b2:
                    58:de:42:1a:35:3a:3c:91:11:ed:19:1f:74:72:90:
                    88:3d:0e:b9:3e:7c:b4:b8:60:29:a0:84:f7:b1:ab:
                    26:96:81:74:16:4d:f7:58:21:98:02:70:89:d1:8f:
                    e7:77
                Exponent: 65537 (0x10001)
        X509v3 extensions:
            X509v3 Subject Key Identifier: 
                9E:E0:EC:DC:1B:E9:8B:87:21:41:6B:D3:1B:28:7C:35:AC:52:BE:B9
            X509v3 Authority Key Identifier: 
                keyid:A8:9B:D8:83:C4:FE:01:EA:69:B2:EB:FD:EF:BE:E3:EE:62:DB:D0:50
                DirName:/O=Freifunk M\xC3\x83\xC2\xBCnchen/CN=Freifunk M\xC3\x83\xC2\xBCnchen etcd CA Root
                serial:01
            X509v3 Basic Constraints: 
                CA:FALSE
            X509v3 Extended Key Usage: 
                TLS Web Client Authentication
    Signature Algorithm: sha256WithRSAEncryption
    Signature Value:
        18:60:67:5f:1b:f5:72:9e:aa:d7:36:78:75:48:78:e6:32:07:
        68:13:d1:2c:d4:0b:4e:85:46:4d:5f:0d:8f:08:6e:17:e4:96:
        4a:93:6d:ed:81:61:dd:48:48:c5:43:af:b8:eb:61:27:00:9c:
        f5:cb:4a:71:67:58:84:2d:86:32:ea:79:6b:19:37:bf:8e:30:
        2c:11:f4:be:8a:5c:49:33:38:e5:c8:0c:68:36:e9:5f:0f:24:
        af:b1:38:a1:94:2f:57:2f:2b:1c:9c:6a:09:f4:3a:36:e6:45:
        d2:38:9a:40:ee:ed:d2:ef:0f:44:fc:62:54:4e:83:e7:03:b9:
        a0:03:13:89:7c:93:26:94:1b:d2:c1:b8:2d:0d:28:98:e0:db:
        88:d7:b0:d2:d1:65:1a:3a:9b:7d:3f:fe:fa:42:a7:4f:f6:8a:
        c3:18:bf:62:56:38:72:a2:e6:4b:79:69:32:54:2f:db:b7:cb:
        01:bb:c2:8f:f1:98:7e:d2:9e:20:4a:6e:a5:4a:e8:4c:fc:56:
        d2:3b:33:57:bd:c3:6a:03:f5:46:9e:23:31:ba:fe:f7:3f:4a:
        a5:be:36:50:92:bb:9c:d9:1a:9f:c8:e7:57:4d:dc:09:76:b7:
        9c:8a:95:11:be:e4:c8:55:e7:a6:96:45:c2:5b:91:2f:f6:41:
        36:42:cc:dc
-----BEGIN CERTIFICATE-----
MIIDzTCCArWgAwIBAgIBCDANBgkqhkiG9w0BAQsFADBJMRwwGgYDVQQKDBNGcmVp
ZnVuayBNw4PCvG5jaGVuMSkwJwYDVQQDDCBGcmVpZnVuayBNw4PCvG5jaGVuIGV0
Y2QgQ0EgUm9vdDAgFw03MDAxMDEwMDAwMDBaGA85OTk5MTIzMTIzNTk1OVowUTEc
MBoGA1UECgwTRnJlaWZ1bmsgTcODwrxuY2hlbjExMC8GA1UEAwwoRnJlaWZ1bmsg
TcODwrxuY2hlbiBwYXJrZXItZ3cwMyAoY2xpZW50KTCCASIwDQYJKoZIhvcNAQEB
BQADggEPADCCAQoCggEBAK2OtKFB/eN2cw9ZtFi6SLWtYPuUdm9048Tq/9VaPcKd
iUxjZDH10+x2HsMBxGK3awvKsg/E2CcOGHwfSLGkTC5NP2aoyrcKmzcHKZhJcD9I
anxp7dJFOH2zjtqstKxpU9ZegXhClVjJM4aw4sK7vxKYsz+DN0HEjnOP+5+IVM2L
gc9uGTqfEAbIDXnIRu32YW1x2i3PRfcfStB1WqEqEmimCfr7yn3IVwaITedSF6r6
cgJDfwpQ9HxjXuw1t0NxnMJxK7gtmKCMOzlNZaWv0m+yWN5CGjU6PJER7RkfdHKQ
iD0OuT58tLhgKaCE97GrJpaBdBZN91ghmAJwidGP53cCAwEAAaOBtTCBsjAdBgNV
HQ4EFgQUnuDs3Bvpi4chQWvTGyh8NaxSvrkwcQYDVR0jBGowaIAUqJvYg8T+Aepp
suv9777j7mLb0FChTaRLMEkxHDAaBgNVBAoME0ZyZWlmdW5rIE3Dg8K8bmNoZW4x
KTAnBgNVBAMMIEZyZWlmdW5rIE3Dg8K8bmNoZW4gZXRjZCBDQSBSb290ggEBMAkG
A1UdEwQCMAAwEwYDVR0lBAwwCgYIKwYBBQUHAwIwDQYJKoZIhvcNAQELBQADggEB
ABhgZ18b9XKeqtc2eHVIeOYyB2gT0SzUC06FRk1fDY8IbhfklkqTbe2BYd1ISMVD
r7jrYScAnPXLSnFnWIQthjLqeWsZN7+OMCwR9L6KXEkzOOXIDGg26V8PJK+xOKGU
L1cvKxycagn0OjbmRdI4mkDu7dLvD0T8YlROg+cDuaADE4l8kyaUG9LBuC0NKJjg
24jXsNLRZRo6m30//vpCp0/2isMYv2JWOHKi5kt5aTJUL9u3ywG7wo/xmH7SniBK
bqVK6Ez8VtI7M1e9w2oD9UaeIzG6/vc/SqW+NlCSu5zZGp/I51dN3Al2t5yKlRG+
5MhV56aWRcJbkS/2QTZCzNw=
-----END CERTIFICATE-----
