Certificate:
    Data:
        Version: 3 (0x2)
        Serial Number: 4 (0x4)
        Signature Algorithm: sha256WithRSAEncryption
        Issuer: O=Freifunk M\xC3\x83\xC2\xBCnchen, CN=Freifunk M\xC3\x83\xC2\xBCnchen etcd CA Root
        Validity
            Not Before: Jan  1 00:00:00 1970 GMT
            Not After : Dec 31 23:59:59 9999 GMT
        Subject: O=Freifunk M\xC3\x83\xC2\xBCnchen, CN=Freifunk M\xC3\x83\xC2\xBCnchen parker-gw03 (server)
        Subject Public Key Info:
            Public Key Algorithm: rsaEncryption
                Public-Key: (2048 bit)
                Modulus:
                    00:f2:15:d1:f6:fd:89:6c:1c:10:90:de:0e:ca:ec:
                    84:1b:6f:e6:da:94:f3:9a:e4:6c:db:92:2c:ce:ac:
                    37:bf:40:58:54:76:f3:27:3b:f0:93:bf:d9:33:51:
                    52:02:6b:07:e3:03:5a:ec:71:8a:ab:27:15:19:7d:
                    e4:33:8d:a8:0b:63:c3:a0:99:78:66:6f:dd:30:e5:
                    9b:66:66:0c:d1:cf:5a:02:df:28:a8:ab:30:d5:3f:
                    0b:b6:fe:30:d1:ce:df:79:64:ec:00:58:43:e5:b0:
                    e4:a7:ea:e9:dd:bb:fa:e8:19:77:a9:fe:bf:52:4b:
                    9c:d7:3d:33:34:f7:91:88:8d:09:2e:ff:47:e9:f2:
                    10:5c:58:2c:9e:a7:c8:4a:31:5e:c5:de:77:09:e6:
                    a8:14:c6:df:c6:86:8c:98:5a:87:38:09:56:1c:ab:
                    14:4d:f1:36:24:de:63:c6:d8:2f:67:e3:2f:d4:ed:
                    d3:b7:6d:74:d7:3f:86:9c:4d:9e:df:26:4f:90:3b:
                    d1:60:0a:2f:ba:21:6b:1b:fc:bc:14:71:68:f3:29:
                    15:ce:c0:27:a2:ef:76:a5:8b:ec:87:dc:c4:3c:68:
                    78:a0:02:1a:36:32:2c:d0:dd:53:80:df:74:93:13:
                    90:15:cc:ed:0a:f4:cf:e0:3f:7a:94:7b:32:17:d0:
                    d2:b1
                Exponent: 65537 (0x10001)
        X509v3 extensions:
            X509v3 Subject Key Identifier: 
                DF:85:4D:78:2B:58:86:AE:8C:42:41:31:60:CB:58:D0:CB:BB:F0:3E
            X509v3 Authority Key Identifier: 
                keyid:A8:9B:D8:83:C4:FE:01:EA:69:B2:EB:FD:EF:BE:E3:EE:62:DB:D0:50
                DirName:/O=Freifunk M\xC3\x83\xC2\xBCnchen/CN=Freifunk M\xC3\x83\xC2\xBCnchen etcd CA Root
                serial:01
            X509v3 Basic Constraints: 
                CA:FALSE
            X509v3 Extended Key Usage: 
                TLS Web Server Authentication, TLS Web Client Authentication
            X509v3 Subject Alternative Name: 
                IP Address:172.16.0.3
    Signature Algorithm: sha256WithRSAEncryption
    Signature Value:
        b3:70:c0:36:7a:6d:d7:f9:30:49:5b:9e:28:71:22:6b:bf:4c:
        4c:42:31:6f:d8:81:45:a5:28:a5:9c:1d:cd:84:28:17:c1:6a:
        e0:67:eb:fb:3e:a3:0b:43:6b:06:87:3c:66:db:d5:66:d7:2f:
        47:67:cb:2c:3b:10:e6:20:79:4c:50:d0:03:2f:26:c3:94:b8:
        ba:4f:9a:c7:27:3c:1e:2e:df:f8:07:f3:73:b3:76:3e:e4:ef:
        d7:04:09:0d:f6:25:6a:c3:5e:d1:63:67:1a:4c:7b:ae:9f:6a:
        fa:0d:63:e6:1c:1d:a5:3c:f0:25:43:bf:85:7b:f2:69:c1:5f:
        55:e9:2a:ab:67:79:78:39:37:bc:81:ae:24:4a:82:b1:31:90:
        72:06:5d:5f:36:da:9c:43:b3:1c:07:8d:cc:c6:06:c7:ef:16:
        88:c7:e3:4c:92:9a:ac:b5:42:0e:99:66:6c:a8:35:35:66:50:
        4d:eb:db:4b:8a:4c:11:70:23:04:b6:71:76:5b:4d:90:32:6b:
        d7:cd:7d:96:be:93:dd:6f:95:55:c2:e4:eb:cf:cb:ae:a6:69:
        f8:35:37:77:29:1b:55:99:1a:5f:b9:6d:c0:ea:05:87:9a:40:
        53:c4:bd:29:05:5c:28:f4:80:7d:da:36:5d:41:f0:42:23:cc:
        b7:63:6c:59
-----BEGIN CERTIFICATE-----
MIID6DCCAtCgAwIBAgIBBDANBgkqhkiG9w0BAQsFADBJMRwwGgYDVQQKDBNGcmVp
ZnVuayBNw4PCvG5jaGVuMSkwJwYDVQQDDCBGcmVpZnVuayBNw4PCvG5jaGVuIGV0
Y2QgQ0EgUm9vdDAgFw03MDAxMDEwMDAwMDBaGA85OTk5MTIzMTIzNTk1OVowUTEc
MBoGA1UECgwTRnJlaWZ1bmsgTcODwrxuY2hlbjExMC8GA1UEAwwoRnJlaWZ1bmsg
TcODwrxuY2hlbiBwYXJrZXItZ3cwMyAoc2VydmVyKTCCASIwDQYJKoZIhvcNAQEB
BQADggEPADCCAQoCggEBAPIV0fb9iWwcEJDeDsrshBtv5tqU85rkbNuSLM6sN79A
WFR28yc78JO/2TNRUgJrB+MDWuxxiqsnFRl95DONqAtjw6CZeGZv3TDlm2ZmDNHP
WgLfKKirMNU/C7b+MNHO33lk7ABYQ+Ww5Kfq6d27+ugZd6n+v1JLnNc9MzT3kYiN
CS7/R+nyEFxYLJ6nyEoxXsXedwnmqBTG38aGjJhahzgJVhyrFE3xNiTeY8bYL2fj
L9Tt07dtdNc/hpxNnt8mT5A70WAKL7ohaxv8vBRxaPMpFc7AJ6LvdqWL7IfcxDxo
eKACGjYyLNDdU4DfdJMTkBXM7Qr0z+A/epR7MhfQ0rECAwEAAaOB0DCBzTAdBgNV
HQ4EFgQU34VNeCtYhq6MQkExYMtY0Mu78D4wcQYDVR0jBGowaIAUqJvYg8T+Aepp
suv9777j7mLb0FChTaRLMEkxHDAaBgNVBAoME0ZyZWlmdW5rIE3Dg8K8bmNoZW4x
KTAnBgNVBAMMIEZyZWlmdW5rIE3Dg8K8bmNoZW4gZXRjZCBDQSBSb290ggEBMAkG
A1UdEwQCMAAwHQYDVR0lBBYwFAYIKwYBBQUHAwEGCCsGAQUFBwMCMA8GA1UdEQQI
MAaHBKwQAAMwDQYJKoZIhvcNAQELBQADggEBALNwwDZ6bdf5MElbnihxImu/TExC
MW/YgUWlKKWcHc2EKBfBauBn6/s+owtDawaHPGbb1WbXL0dnyyw7EOYgeUxQ0AMv
JsOUuLpPmscnPB4u3/gH83Ozdj7k79cECQ32JWrDXtFjZxpMe66favoNY+YcHaU8
8CVDv4V78mnBX1XpKqtneXg5N7yBriRKgrExkHIGXV822pxDsxwHjczGBsfvFojH
40ySmqy1Qg6ZZmyoNTVmUE3r20uKTBFwIwS2cXZbTZAya9fNfZa+k91vlVXC5OvP
y66mafg1N3cpG1WZGl+5bcDqBYeaQFPEvSkFXCj0gH3aNl1B8EIjzLdjbFk=
-----END CERTIFICATE-----
