Certificate:
    Data:
        Version: 3 (0x2)
        Serial Number: 1 (0x1)
        Signature Algorithm: sha256WithRSAEncryption
        Issuer: O=Freifunk M\xC3\x83\xC2\xBCnchen, CN=Freifunk M\xC3\x83\xC2\xBCnchen etcd CA Root
        Validity
            Not Before: Jan  1 00:00:00 1970 GMT
            Not After : Dec 31 23:59:59 9999 GMT
        Subject: O=Freifunk M\xC3\x83\xC2\xBCnchen, CN=Freifunk M\xC3\x83\xC2\xBCnchen etcd CA Root
        Subject Public Key Info:
            Public Key Algorithm: rsaEncryption
                Public-Key: (2048 bit)
                Modulus:
                    00:dd:a1:92:28:b1:a3:85:c2:91:6b:ed:ea:8b:43:
                    08:73:ed:e6:10:4d:6f:2f:a2:4e:4b:80:70:62:5a:
                    d6:2b:54:f6:d7:24:2c:26:8e:3a:eb:b4:b3:e9:46:
                    f8:3c:c7:c8:25:60:25:b8:99:06:95:d1:e9:b9:b0:
                    cf:5b:ae:de:0c:d9:45:8f:29:d9:55:d3:50:59:91:
                    23:3a:35:22:fe:93:79:1d:94:f4:ad:92:2e:7a:86:
                    72:97:5a:f8:a4:19:ea:6b:a6:71:58:30:3f:6c:ed:
                    e7:2d:80:94:c5:ae:05:27:e8:22:4a:ca:36:18:27:
                    3d:63:02:e4:af:88:a5:0c:3c:5c:16:7e:76:5e:97:
                    cf:ac:8c:79:e0:d9:db:ff:53:14:2e:67:49:fb:79:
                    4d:75:a2:9f:b8:40:3b:47:5a:64:e8:00:57:58:3a:
                    62:fa:24:94:71:88:3d:1f:99:60:d6:26:60:dd:87:
                    76:e3:dd:7e:dd:99:d8:f0:65:bb:93:ac:58:c2:7d:
                    6e:cf:29:63:04:de:27:8f:6f:3f:53:16:cd:98:fb:
                    d5:ef:be:e5:a7:b9:6f:7e:3f:67:bf:75:21:dc:c4:
                    43:72:80:70:99:ef:9b:b0:01:b9:c5:c6:08:32:f1:
                    9c:78:73:00:9f:72:d8:ae:d3:97:50:5d:f2:85:9f:
                    90:e9
                Exponent: 65537 (0x10001)
        X509v3 extensions:
            X509v3 Subject Key Identifier: 
                A8:9B:D8:83:C4:FE:01:EA:69:B2:EB:FD:EF:BE:E3:EE:62:DB:D0:50
            X509v3 Authority Key Identifier: 
                keyid:A8:9B:D8:83:C4:FE:01:EA:69:B2:EB:FD:EF:BE:E3:EE:62:DB:D0:50
                DirName:/O=Freifunk M\xC3\x83\xC2\xBCnchen/CN=Freifunk M\xC3\x83\xC2\xBCnchen etcd CA Root
                serial:01
            X509v3 Basic Constraints: 
                CA:TRUE
    Signature Algorithm: sha256WithRSAEncryption
    Signature Value:
        13:f4:5f:2e:0d:eb:c3:62:bf:78:b1:8e:9c:41:c7:be:c3:0f:
        71:ac:c1:c9:7c:03:cd:fd:da:7e:20:2f:a9:13:20:ef:81:c1:
        f4:7e:53:43:70:e1:22:53:ad:1f:78:d3:56:e2:f1:9d:9a:02:
        d1:d9:bc:fa:49:15:1b:d6:cd:7e:03:62:b8:33:a0:37:10:9a:
        0c:fa:4b:4e:b5:4c:94:e8:33:9e:e5:bc:8e:6b:d6:89:c4:25:
        c7:63:04:3a:f8:91:e6:4c:4a:35:81:8d:07:2b:7f:d7:49:9e:
        ae:22:69:8d:7f:04:5a:b7:46:70:ae:18:d4:11:33:e5:65:c1:
        93:46:83:f9:09:43:35:20:21:99:c3:23:e0:7a:91:fa:d1:25:
        92:02:a4:ff:30:5a:c1:f5:21:3f:3e:19:29:0c:d4:ca:c9:20:
        2c:db:4f:ac:49:cd:12:50:f3:c4:19:e2:2e:1a:97:cb:9f:43:
        2c:47:ae:53:62:5a:1d:0d:a6:58:38:9a:b7:c6:34:30:5b:ef:
        33:fd:97:85:4e:c2:17:20:1e:a9:97:bf:84:e7:a5:96:d9:92:
        42:64:2f:61:8c:82:83:76:2e:4c:32:6b:9e:ab:d2:6f:2e:75:
        fc:1e:c0:8e:45:79:8f:bf:26:b0:af:14:83:1c:2a:8c:53:fc:
        1a:b6:57:79
-----BEGIN CERTIFICATE-----
MIIDszCCApugAwIBAgIBATANBgkqhkiG9w0BAQsFADBJMRwwGgYDVQQKDBNGcmVp
ZnVuayBNw4PCvG5jaGVuMSkwJwYDVQQDDCBGcmVpZnVuayBNw4PCvG5jaGVuIGV0
Y2QgQ0EgUm9vdDAgFw03MDAxMDEwMDAwMDBaGA85OTk5MTIzMTIzNTk1OVowSTEc
MBoGA1UECgwTRnJlaWZ1bmsgTcODwrxuY2hlbjEpMCcGA1UEAwwgRnJlaWZ1bmsg
TcODwrxuY2hlbiBldGNkIENBIFJvb3QwggEiMA0GCSqGSIb3DQEBAQUAA4IBDwAw
ggEKAoIBAQDdoZIosaOFwpFr7eqLQwhz7eYQTW8vok5LgHBiWtYrVPbXJCwmjjrr
tLPpRvg8x8glYCW4mQaV0em5sM9brt4M2UWPKdlV01BZkSM6NSL+k3kdlPStki56
hnKXWvikGeprpnFYMD9s7ectgJTFrgUn6CJKyjYYJz1jAuSviKUMPFwWfnZel8+s
jHng2dv/UxQuZ0n7eU11op+4QDtHWmToAFdYOmL6JJRxiD0fmWDWJmDdh3bj3X7d
mdjwZbuTrFjCfW7PKWME3iePbz9TFs2Y+9XvvuWnuW9+P2e/dSHcxENygHCZ75uw
AbnFxggy8Zx4cwCfctiu05dQXfKFn5DpAgMBAAGjgaMwgaAwHQYDVR0OBBYEFKib
2IPE/gHqabLr/e++4+5i29BQMHEGA1UdIwRqMGiAFKib2IPE/gHqabLr/e++4+5i
29BQoU2kSzBJMRwwGgYDVQQKDBNGcmVpZnVuayBNw4PCvG5jaGVuMSkwJwYDVQQD
DCBGcmVpZnVuayBNw4PCvG5jaGVuIGV0Y2QgQ0EgUm9vdIIBATAMBgNVHRMEBTAD
AQH/MA0GCSqGSIb3DQEBCwUAA4IBAQAT9F8uDevDYr94sY6cQce+ww9xrMHJfAPN
/dp+IC+pEyDvgcH0flNDcOEiU60feNNW4vGdmgLR2bz6SRUb1s1+A2K4M6A3EJoM
+ktOtUyU6DOe5byOa9aJxCXHYwQ6+JHmTEo1gY0HK3/XSZ6uImmNfwRat0ZwrhjU
ETPlZcGTRoP5CUM1ICGZwyPgepH60SWSAqT/MFrB9SE/PhkpDNTKySAs20+sSc0S
UPPEGeIuGpfLn0MsR65TYlodDaZYOJq3xjQwW+8z/ZeFTsIXIB6pl7+E56WW2ZJC
ZC9hjIKDdi5MMmueq9JvLnX8HsCORXmPvyawrxSDHCqMU/watld5
-----END CERTIFICATE-----
