Certificate:
    Data:
        Version: 3 (0x2)
        Serial Number: 7 (0x7)
        Signature Algorithm: sha256WithRSAEncryption
        Issuer: O=Freifunk M\xC3\x83\xC2\xBCnchen, CN=Freifunk M\xC3\x83\xC2\xBCnchen etcd CA Root
        Validity
            Not Before: Jan  1 00:00:00 1970 GMT
            Not After : Dec 31 23:59:59 9999 GMT
        Subject: O=Freifunk M\xC3\x83\xC2\xBCnchen, CN=Freifunk M\xC3\x83\xC2\xBCnchen parker-gw02 (client)
        Subject Public Key Info:
            Public Key Algorithm: rsaEncryption
                Public-Key: (2048 bit)
                Modulus:
                    00:a8:ed:b4:d5:69:dd:e4:39:12:c9:2c:64:f6:7c:
                    8b:e4:91:bc:a4:06:6f:21:0b:0a:27:78:50:3b:e6:
                    10:86:62:42:8d:59:78:96:c4:9b:38:df:d7:65:14:
                    0e:3f:24:e9:be:f2:02:c5:a5:be:68:a4:01:c3:71:
                    6b:18:41:93:ac:05:43:3e:e3:7b:82:8e:d1:08:7a:
                    8c:17:b4:b7:85:3a:87:68:b1:16:1f:fd:70:27:25:
                    b4:42:d2:f7:6e:b1:d6:2c:90:9b:7d:18:96:e2:a3:
                    09:e4:77:38:ba:8e:b8:5d:0d:7a:00:be:97:3d:3c:
                    0d:bf:74:fb:b4:8f:bc:19:2b:5e:2d:31:1d:4a:b6:
                    67:d6:5c:e0:a3:eb:fd:4c:37:43:a9:37:95:36:21:
                    31:fe:20:56:ab:ee:7c:3f:19:8c:2f:61:d3:1a:99:
                    da:26:5e:6b:f2:09:4e:67:bb:4a:b5:be:10:ee:f0:
                    b5:c2:7c:55:b2:ec:e8:69:93:6a:bd:78:be:fd:46:
                    00:a2:61:6a:05:29:ac:5e:1e:07:b6:44:fb:1d:f4:
                    8e:9a:91:a8:5c:a3:1a:8e:8d:4b:e8:ba:9f:96:1c:
                    52:07:fc:69:fa:18:88:da:2a:4b:85:06:87:91:2f:
                    c2:60:1d:b0:d9:0d:30:18:90:8a:04:79:8c:27:f0:
                    c3:eb
                Exponent: 65537 (0x10001)
        X509v3 extensions:
            X509v3 Subject Key Identifier: 
                52:FC:40:0A:AD:2B:17:BB:71:77:D2:C2:9F:F9:E1:4B:53:94:F1:2D
            X509v3 Authority Key Identifier: 
                keyid:A8:9B:D8:83:C4:FE:01:EA:69:B2:EB:FD:EF:BE:E3:EE:62:DB:D0:50
                DirName:/O=Freifunk M\xC3\x83\xC2\xBCnchen/CN=Freifunk M\xC3\x83\xC2\xBCnchen etcd CA Root
                serial:01
            X509v3 Basic Constraints: 
                CA:FALSE
            X509v3 Extended Key Usage: 
                TLS Web Client Authentication
    Signature Algorithm: sha256WithRSAEncryption
    Signature Value:
        cf:a0:06:4d:3a:bb:e9:2e:86:1c:c4:d1:e3:2b:cb:62:af:1c:
        2b:3f:7a:1a:28:7b:9b:f0:17:47:c7:d0:5e:9b:8c:45:20:4c:
        b7:bb:56:48:c0:8c:12:6b:82:d8:57:9d:20:8f:03:9f:48:df:
        56:19:f8:73:57:bf:19:42:41:c9:09:18:f5:78:a7:bd:44:11:
        c4:c3:86:be:d9:54:32:0c:0e:0c:1c:67:ad:de:0a:1d:23:3a:
        3c:d4:28:57:14:46:89:a6:cf:cb:e5:fc:1b:8e:c0:ef:b3:2a:
        aa:e5:52:90:bf:84:60:03:f7:a5:94:94:6f:a2:f8:43:38:82:
        1a:67:7a:c0:ad:8b:25:0e:f2:39:9d:1b:db:19:a2:15:c9:7d:
        10:89:95:6b:1f:ca:6d:71:32:fc:89:02:42:6c:e5:26:fe:0b:
        f9:be:5e:ca:32:e8:e4:d4:9d:9e:fa:42:5a:b3:e3:1b:da:3c:
        69:c6:d6:bd:38:3d:c8:c4:c3:47:1c:36:d1:5c:bc:b2:ef:6c:
        94:de:b5:09:37:a5:db:31:8e:c3:14:18:d5:a3:df:37:b9:eb:
        f9:92:58:7f:40:8b:6f:dc:66:cd:7b:23:ff:34:91:e4:5e:1a:
        72:62:37:a4:0a:bf:7f:82:cf:81:9a:86:35:11:50:eb:69:bd:
        51:a3:71:d2
-----BEGIN CERTIFICATE-----
MIIDzTCCArWgAwIBAgIBBzANBgkqhkiG9w0BAQsFADBJMRwwGgYDVQQKDBNGcmVp
ZnVuayBNw4PCvG5jaGVuMSkwJwYDVQQDDCBGcmVpZnVuayBNw4PCvG5jaGVuIGV0
Y2QgQ0EgUm9vdDAgFw03MDAxMDEwMDAwMDBaGA85OTk5MTIzMTIzNTk1OVowUTEc
MBoGA1UECgwTRnJlaWZ1bmsgTcODwrxuY2hlbjExMC8GA1UEAwwoRnJlaWZ1bmsg
TcODwrxuY2hlbiBwYXJrZXItZ3cwMiAoY2xpZW50KTCCASIwDQYJKoZIhvcNAQEB
BQADggEPADCCAQoCggEBAKjttNVp3eQ5EsksZPZ8i+SRvKQGbyELCid4UDvmEIZi
Qo1ZeJbEmzjf12UUDj8k6b7yAsWlvmikAcNxaxhBk6wFQz7je4KO0Qh6jBe0t4U6
h2ixFh/9cCcltELS926x1iyQm30YluKjCeR3OLqOuF0NegC+lz08Db90+7SPvBkr
Xi0xHUq2Z9Zc4KPr/Uw3Q6k3lTYhMf4gVqvufD8ZjC9h0xqZ2iZea/IJTme7SrW+
EO7wtcJ8VbLs6GmTar14vv1GAKJhagUprF4eB7ZE+x30jpqRqFyjGo6NS+i6n5Yc
Ugf8afoYiNoqS4UGh5EvwmAdsNkNMBiQigR5jCfww+sCAwEAAaOBtTCBsjAdBgNV
HQ4EFgQUUvxACq0rF7txd9LCn/nhS1OU8S0wcQYDVR0jBGowaIAUqJvYg8T+Aepp
suv9777j7mLb0FChTaRLMEkxHDAaBgNVBAoME0ZyZWlmdW5rIE3Dg8K8bmNoZW4x
KTAnBgNVBAMMIEZyZWlmdW5rIE3Dg8K8bmNoZW4gZXRjZCBDQSBSb290ggEBMAkG
A1UdEwQCMAAwEwYDVR0lBAwwCgYIKwYBBQUHAwIwDQYJKoZIhvcNAQELBQADggEB
AM+gBk06u+kuhhzE0eMry2KvHCs/ehooe5vwF0fH0F6bjEUgTLe7VkjAjBJrgthX
nSCPA59I31YZ+HNXvxlCQckJGPV4p71EEcTDhr7ZVDIMDgwcZ63eCh0jOjzUKFcU
Rommz8vl/BuOwO+zKqrlUpC/hGAD96WUlG+i+EM4ghpnesCtiyUO8jmdG9sZohXJ
fRCJlWsfym1xMvyJAkJs5Sb+C/m+Xsoy6OTUnZ76Qlqz4xvaPGnG1r04PcjEw0cc
NtFcvLLvbJTetQk3pdsxjsMUGNWj3ze56/mSWH9Ai2/cZs17I/80keReGnJiN6QK
v3+Cz4GahjURUOtpvVGjcdI=
-----END CERTIFICATE-----
