Certificate:
    Data:
        Version: 3 (0x2)
        Serial Number: 3 (0x3)
        Signature Algorithm: sha256WithRSAEncryption
        Issuer: O=Freifunk M\xC3\x83\xC2\xBCnchen, CN=Freifunk M\xC3\x83\xC2\xBCnchen etcd CA Root
        Validity
            Not Before: Jan  1 00:00:00 1970 GMT
            Not After : Dec 31 23:59:59 9999 GMT
        Subject: O=Freifunk M\xC3\x83\xC2\xBCnchen, CN=Freifunk M\xC3\x83\xC2\xBCnchen parker-gw02 (server)
        Subject Public Key Info:
            Public Key Algorithm: rsaEncryption
                Public-Key: (2048 bit)
                Modulus:
                    00:97:46:8e:46:aa:af:a2:2e:e6:50:a7:ef:9f:0a:
                    a0:b0:75:f2:cd:16:81:96:59:3e:a1:fb:eb:90:31:
                    f7:91:b5:8f:54:f8:fc:ca:cf:75:13:e4:6b:a3:d9:
                    d9:bd:50:d6:df:2c:8f:6d:33:53:bf:52:f5:35:2e:
                    fb:7f:e1:63:45:48:7a:13:48:8b:c6:b3:21:2f:aa:
                    db:13:19:5a:0b:9b:e0:37:03:b6:b0:03:4b:f5:cb:
                    cc:22:b9:fe:3a:05:78:d4:ff:8f:88:2b:a5:c4:e4:
                    6e:7b:8d:15:de:22:98:8d:c1:0e:25:b8:ae:5a:85:
                    de:fa:1d:f1:6d:4e:ed:15:88:2e:1d:0b:b6:2f:74:
                    5a:46:70:83:72:dc:de:d4:81:50:62:00:54:12:be:
                    a1:0e:a9:28:97:df:c3:26:74:1a:35:29:a6:80:43:
                    8b:e3:fe:06:b9:e8:8c:73:2c:d6:f7:d1:08:9d:5b:
                    8b:34:bc:c7:89:cd:c9:36:17:e4:02:8c:e2:55:15:
                    c0:13:38:0c:f8:17:24:b8:a9:4e:b1:e6:a0:9d:a7:
                    29:02:87:d1:1b:6e:a5:b6:42:7c:01:88:2d:fd:d4:
                    aa:0d:95:56:4d:e8:2f:2c:55:65:8f:3a:68:11:44:
                    0a:d4:b4:c0:72:39:cd:60:8c:84:c5:82:74:54:21:
                    e1:65
                Exponent: 65537 (0x10001)
        X509v3 extensions:
            X509v3 Subject Key Identifier: 
                88:48:39:26:91:46:19:47:AC:CE:30:C2:79:72:00:07:7C:EF:B3:0F
            X509v3 Authority Key Identifier: 
                keyid:A8:9B:D8:83:C4:FE:01:EA:69:B2:EB:FD:EF:BE:E3:EE:62:DB:D0:50
                DirName:/O=Freifunk M\xC3\x83\xC2\xBCnchen/CN=Freifunk M\xC3\x83\xC2\xBCnchen etcd CA Root
                serial:01
            X509v3 Basic Constraints: 
                CA:FALSE
            X509v3 Extended Key Usage: 
                TLS Web Server Authentication, TLS Web Client Authentication
            X509v3 Subject Alternative Name: 
                IP Address:172.16.0.2
    Signature Algorithm: sha256WithRSAEncryption
    Signature Value:
        29:06:a9:42:3d:b8:8d:44:7b:39:7d:ae:6a:b9:16:f4:80:c2:
        e1:3e:ac:e3:6d:44:26:a7:3c:b7:0f:f1:5b:d7:34:9f:3b:0e:
        79:85:54:1a:68:d1:af:0b:dd:cb:1c:9f:23:c8:3b:b4:d1:15:
        c7:44:c7:06:2d:6f:7f:eb:4b:71:69:da:aa:47:ad:01:bd:90:
        ae:7f:20:54:5b:9b:46:3e:9a:ee:d6:ce:5d:14:dd:79:fd:dc:
        6e:5c:5a:10:23:30:90:ac:f4:b4:e7:6d:45:8a:3f:90:73:42:
        ae:d8:2d:9c:12:b4:55:86:90:77:aa:36:81:8b:8b:6a:f1:94:
        a3:71:0f:e2:b7:4a:e3:f2:b3:ba:87:48:18:88:ba:57:68:75:
        4a:b6:ff:86:a4:f1:37:e9:f9:ea:4b:97:5d:86:b0:f5:35:44:
        0d:f5:fe:85:32:8c:76:c2:20:57:1e:9e:f4:8b:af:07:b2:b9:
        5b:1e:ea:b3:b8:37:ae:06:2a:61:ba:0f:97:1a:35:dc:26:d5:
        7e:23:5c:57:15:c8:a0:8a:92:af:76:ae:02:bd:02:25:6e:3d:
        13:62:fc:81:53:94:00:67:15:9f:39:67:e9:ac:0e:ea:2a:23:
        28:d1:46:39:fe:5d:50:8e:3f:6e:54:b7:9b:18:ba:95:34:ba:
        74:6c:14:5a
-----BEGIN CERTIFICATE-----
MIID6DCCAtCgAwIBAgIBAzANBgkqhkiG9w0BAQsFADBJMRwwGgYDVQQKDBNGcmVp
ZnVuayBNw4PCvG5jaGVuMSkwJwYDVQQDDCBGcmVpZnVuayBNw4PCvG5jaGVuIGV0
Y2QgQ0EgUm9vdDAgFw03MDAxMDEwMDAwMDBaGA85OTk5MTIzMTIzNTk1OVowUTEc
MBoGA1UECgwTRnJlaWZ1bmsgTcODwrxuY2hlbjExMC8GA1UEAwwoRnJlaWZ1bmsg
TcODwrxuY2hlbiBwYXJrZXItZ3cwMiAoc2VydmVyKTCCASIwDQYJKoZIhvcNAQEB
BQADggEPADCCAQoCggEBAJdGjkaqr6Iu5lCn758KoLB18s0WgZZZPqH765Ax95G1
j1T4/MrPdRPka6PZ2b1Q1t8sj20zU79S9TUu+3/hY0VIehNIi8azIS+q2xMZWgub
4DcDtrADS/XLzCK5/joFeNT/j4grpcTkbnuNFd4imI3BDiW4rlqF3vod8W1O7RWI
Lh0Lti90WkZwg3Lc3tSBUGIAVBK+oQ6pKJffwyZ0GjUppoBDi+P+BrnojHMs1vfR
CJ1bizS8x4nNyTYX5AKM4lUVwBM4DPgXJLipTrHmoJ2nKQKH0RtupbZCfAGILf3U
qg2VVk3oLyxVZY86aBFECtS0wHI5zWCMhMWCdFQh4WUCAwEAAaOB0DCBzTAdBgNV
HQ4EFgQUiEg5JpFGGUeszjDCeXIAB3zvsw8wcQYDVR0jBGowaIAUqJvYg8T+Aepp
suv9777j7mLb0FChTaRLMEkxHDAaBgNVBAoME0ZyZWlmdW5rIE3Dg8K8bmNoZW4x
KTAnBgNVBAMMIEZyZWlmdW5rIE3Dg8K8bmNoZW4gZXRjZCBDQSBSb290ggEBMAkG
A1UdEwQCMAAwHQYDVR0lBBYwFAYIKwYBBQUHAwEGCCsGAQUFBwMCMA8GA1UdEQQI
MAaHBKwQAAIwDQYJKoZIhvcNAQELBQADggEBACkGqUI9uI1Eezl9rmq5FvSAwuE+
rONtRCanPLcP8VvXNJ87DnmFVBpo0a8L3cscnyPIO7TRFcdExwYtb3/rS3Fp2qpH
rQG9kK5/IFRbm0Y+mu7Wzl0U3Xn93G5cWhAjMJCs9LTnbUWKP5BzQq7YLZwStFWG
kHeqNoGLi2rxlKNxD+K3SuPys7qHSBiIuldodUq2/4ak8Tfp+epLl12GsPU1RA31
/oUyjHbCIFcenvSLrweyuVse6rO4N64GKmG6D5caNdwm1X4jXFcVyKCKkq92rgK9
AiVuPRNi/IFTlABnFZ85Z+msDuoqIyjRRjn+XVCOP25Ut5sYupU0unRsFFo=
-----END CERTIFICATE-----
